; Function Attrs: nounwind uwtable
define hidden i32 @plpgsql_scanner_errposition(i32 noundef %0, ptr noundef readonly captures(none) %1) local_unnamed_addr #0 {
  %3 = icmp slt i32 %0, 0
  br i1 %3, label %17, label %4

4:                                                ; preds = %2
  %5 = load ptr, ptr %1, align 8
  %6 = getelementptr inbounds nuw i8, ptr %5, i64 88
  %7 = load ptr, ptr %6, align 8
  %8 = icmp eq ptr %7, null
  br i1 %8, label %17, label %9

9:                                                ; preds = %4
  %10 = tail call i32 @pg_mbstrlen_with_len(ptr noundef nonnull %7, i32 noundef %0) #12
  %11 = add i32 %10, 1
  %12 = tail call i32 @internalerrposition(i32 noundef %11) #12
  %13 = load ptr, ptr %1, align 8
  %14 = getelementptr inbounds nuw i8, ptr %13, i64 88
  %15 = load ptr, ptr %14, align 8
  %16 = tail call i32 @internalerrquery(ptr noundef %15) #12
  br label %17

17:                                               ; preds = %2, %4, %9
  %.0 = phi i32 [ %16, %9 ], [ 0, %4 ], [ 0, %2 ]
  ret i32 %.0
}